; Function Attrs: nounwind uwtable
define dso_local i32 @get_promoted_array_type(i32 noundef %0) local_unnamed_addr #0 {
  %2 = zext i32 %0 to i64
  %3 = tail call ptr @SearchSysCache1(i32 noundef 82, i64 noundef %2) #8
  %.not.i = icmp eq ptr %3, null
  br i1 %.not.i, label %get_array_type.exit.thread, label %get_array_type.exit

get_array_type.exit:                              ; preds = %1
  %4 = getelementptr i8, ptr %3, i64 16
  %.val.i = load ptr, ptr %4, align 8
  %5 = getelementptr inbounds nuw i8, ptr %.val.i, i64 22
  %6 = load i8, ptr %5, align 2
  %7 = zext i8 %6 to i64
  %8 = getelementptr inbounds nuw i8, ptr %.val.i, i64 %7
  %9 = getelementptr inbounds nuw i8, ptr %8, i64 96
  %10 = load i32, ptr %9, align 4
  tail call void @ReleaseSysCache(ptr noundef nonnull %3) #8
  %.not = icmp eq i32 %10, 0
  br i1 %.not, label %get_array_type.exit.thread, label %get_element_type.exit.thread

get_array_type.exit.thread:                       ; preds = %1, %get_array_type.exit
  %11 = tail call ptr @SearchSysCache1(i32 noundef 82, i64 noundef %2) #8
  %.not.i8 = icmp eq ptr %11, null
  br i1 %.not.i8, label %get_element_type.exit.thread, label %12

12:                                               ; preds = %get_array_type.exit.thread
  %13 = getelementptr i8, ptr %11, i64 16
  %.val.i9 = load ptr, ptr %13, align 8
  %14 = getelementptr inbounds nuw i8, ptr %.val.i9, i64 22
  %15 = load i8, ptr %14, align 2
  %16 = zext i8 %15 to i64
  %17 = getelementptr inbounds nuw i8, ptr %.val.i9, i64 %16
  %18 = getelementptr inbounds nuw i8, ptr %17, i64 92
  %19 = load i32, ptr %18, align 4
  %.not11.i = icmp eq i32 %19, 0
  br i1 %.not11.i, label %get_element_type.exit.thread.sink.split, label %20

20:                                               ; preds = %12
  %21 = getelementptr inbounds nuw i8, ptr %17, i64 88
  %22 = load i32, ptr %21, align 4
  %23 = icmp eq i32 %22, 6179
  %spec.select = select i1 %23, i32 %0, i32 0
  br label %get_element_type.exit.thread.sink.split

get_element_type.exit.thread.sink.split:          ; preds = %20, %12
  %.0.ph = phi i32 [ 0, %12 ], [ %spec.select, %20 ]
  tail call void @ReleaseSysCache(ptr noundef nonnull %11) #8
  br label %get_element_type.exit.thread

get_element_type.exit.thread:                     ; preds = %get_element_type.exit.thread.sink.split, %get_array_type.exit.thread, %get_array_type.exit
  %.0 = phi i32 [ %10, %get_array_type.exit ], [ 0, %get_array_type.exit.thread ], [ %.0.ph, %get_element_type.exit.thread.sink.split ]
  ret i32 %.0
}